; Function Attrs: mustprogress uwtable
define internal fastcc void @_ZN4absl12_GLOBAL__N_120MakeAppendStringCordENS_12TestCordSizeE(ptr dead_on_unwind noalias nonnull writable align 8 initializes((0, 16)) %0) unnamed_addr #3 personality ptr @__gxx_personality_v0 {
  %2 = alloca %"class.absl::CordzSamplingIntervalHelper", align 4
  call void @llvm.lifetime.start.p0(i64 4, ptr nonnull %2) #17
  %3 = tail call noundef i32 @_ZN4absl13cord_internal23get_cordz_mean_intervalEv()
  store i32 %3, ptr %2, align 4, !tbaa !100
  tail call void @_ZN4absl13cord_internal23set_cordz_mean_intervalEi(i32 noundef 1)
  tail call void @_ZN4absl13cord_internal33cordz_set_next_sample_for_testingEl(i64 noundef 1)
  tail call void @llvm.memset.p0.i64(ptr noundef nonnull align 8 dereferenceable(16) %0, i8 0, i64 16, i1 false)
  %4 = invoke fastcc { i64, ptr } @_ZN4absl12_GLOBAL__N_110MakeStringENS_12TestCordSizeE(i32 noundef 16332)
          to label %5 unwind label %8

5:                                                ; preds = %1
  %6 = extractvalue { i64, ptr } %4, 0
  %7 = extractvalue { i64, ptr } %4, 1
  invoke void @_ZN4absl4Cord9InlineRep11AppendArrayESt17basic_string_viewIcSt11char_traitsIcEENS_13cord_internal18CordzUpdateTracker16MethodIdentifierE(ptr noundef nonnull align 8 dereferenceable(16) %0, i64 %6, ptr %7, i32 noundef 4)
          to label %_ZN4absl4Cord6AppendESt17basic_string_viewIcSt11char_traitsIcEE.exit unwind label %8

8:                                                ; preds = %5, %1
  %9 = landingpad { ptr, i32 }
          cleanup
  tail call void @_ZN4absl4CordD2Ev(ptr noundef nonnull align 8 dereferenceable(16) %0) #17
  call void @_ZN4absl27CordzSamplingIntervalHelperD2Ev(ptr noundef nonnull align 4 dereferenceable(4) %2) #17
  call void @llvm.lifetime.end.p0(i64 4, ptr nonnull %2) #17
  resume { ptr, i32 } %9

_ZN4absl4Cord6AppendESt17basic_string_viewIcSt11char_traitsIcEE.exit: ; preds = %5
  %10 = load i32, ptr %2, align 4, !tbaa !100
  invoke void @_ZN4absl13cord_internal23set_cordz_mean_intervalEi(i32 noundef %10)
          to label %11 unwind label %13

11:                                               ; preds = %_ZN4absl4Cord6AppendESt17basic_string_viewIcSt11char_traitsIcEE.exit
  %12 = sext i32 %10 to i64
  invoke void @_ZN4absl13cord_internal33cordz_set_next_sample_for_testingEl(i64 noundef %12)
          to label %_ZN4absl27CordzSamplingIntervalHelperD2Ev.exit unwind label %13

13:                                               ; preds = %11, %_ZN4absl4Cord6AppendESt17basic_string_viewIcSt11char_traitsIcEE.exit
  %14 = landingpad { ptr, i32 }
          catch ptr null
  %15 = extractvalue { ptr, i32 } %14, 0
  tail call void @__clang_call_terminate(ptr %15) #37
  unreachable

_ZN4absl27CordzSamplingIntervalHelperD2Ev.exit:   ; preds = %11
  call void @llvm.lifetime.end.p0(i64 4, ptr nonnull %2) #17
  ret void
}